target datalayout = "e-m:e-p270:32:32-p271:32:32-p272:64:64-i64:64-i128:128-f80:128-n8:16:32:64-S128"
target triple = "x86_64-pc-linux-gnu"

%struct._sapi_globals_struct = type { ptr, %struct.sapi_request_info, %struct.sapi_headers_struct, i64, i8, i8, %struct.stat, ptr, ptr, ptr, i64, i32, i8, double, %struct._zend_array, %struct._zval_struct, %struct._zend_fcall_info_cache, %struct.sapi_request_parse_body_context }
%struct.sapi_request_info = type { ptr, ptr, ptr, i64, ptr, ptr, ptr, ptr, i8, i8, i8, ptr, ptr, ptr, ptr, ptr, ptr, ptr, i32, i32, ptr, i32 }
%struct.sapi_headers_struct = type { %struct._zend_llist, i32, i8, ptr, ptr }
%struct._zend_llist = type { ptr, ptr, i64, i64, ptr, i8, ptr }
%struct.stat = type { i64, i64, i64, i32, i32, i32, i32, i64, i64, i64, i64, %struct.timespec, %struct.timespec, %struct.timespec, [3 x i64] }
%struct.timespec = type { i64, i64 }
%struct._zend_array = type { %struct._zend_refcounted_h, %union.anon.0, i32, %union.anon.1, i32, i32, i32, i32, i64, ptr }
%struct._zend_refcounted_h = type { i32, %union.anon }
%union.anon = type { i32 }
%union.anon.0 = type { i32 }
%union.anon.1 = type { ptr }
%struct._zval_struct = type { %union._zend_value, %union.anon.3, %union.anon.6 }
%union._zend_value = type { i64 }
%union.anon.3 = type { i32 }
%union.anon.6 = type { i32 }
%struct._zend_fcall_info_cache = type { ptr, ptr, ptr, ptr, ptr }
%struct.sapi_request_parse_body_context = type { i8, [5 x %struct.anon.7] }
%struct.anon.7 = type { i8, i64 }
%struct._Bucket = type { %struct._zval_struct, i64, ptr }
%struct._zend_string = type { %struct._zend_refcounted_h, i64, i64, [1 x i8] }
%struct.anon.4 = type { i8, i8, %union.anon.5 }
%union.anon.5 = type { i16 }

@sapi_globals = external global %struct._sapi_globals_struct, align 8

; Function Attrs: alwaysinline nounwind uwtable
define internal zeroext i8 @zval_get_type(ptr noundef %0) #3 {
  %2 = alloca ptr, align 8
  store ptr %0, ptr %2, align 8, !tbaa !37
  %3 = load ptr, ptr %2, align 8, !tbaa !37
  %4 = getelementptr inbounds nuw %struct._zval_struct, ptr %3, i32 0, i32 1
  %5 = getelementptr inbounds nuw %struct.anon.4, ptr %4, i32 0, i32 0
  %6 = load i8, ptr %5, align 8, !tbaa !33
  ret i8 %6
}

; Function Attrs: nounwind uwtable
define dso_local void @destroy_uploaded_files_hash() #0 {
  %1 = alloca ptr, align 8
  %2 = alloca ptr, align 8
  %3 = alloca ptr, align 8
  %4 = alloca ptr, align 8
  %5 = alloca ptr, align 8
  %6 = alloca i32, align 4
  %7 = alloca ptr, align 8
  call void @llvm.lifetime.start.p0(i64 8, ptr %1) #15
  br label %8

8:                                                ; preds = %0
  call void @llvm.lifetime.start.p0(i64 8, ptr %2) #15
  %9 = load ptr, ptr getelementptr inbounds nuw (%struct._sapi_globals_struct, ptr @sapi_globals, i32 0, i32 9), align 8, !tbaa !4
  store ptr %9, ptr %2, align 8, !tbaa !32
  call void @llvm.lifetime.start.p0(i64 8, ptr %3) #15
  %10 = load ptr, ptr %2, align 8, !tbaa !32
  %11 = getelementptr inbounds nuw %struct._zend_array, ptr %10, i32 0, i32 3
  %12 = load ptr, ptr %11, align 8, !tbaa !33
  %13 = getelementptr inbounds %struct._Bucket, ptr %12, i64 0
  store ptr %13, ptr %3, align 8, !tbaa !34
  call void @llvm.lifetime.start.p0(i64 8, ptr %4) #15
  %14 = load ptr, ptr %2, align 8, !tbaa !32
  %15 = getelementptr inbounds nuw %struct._zend_array, ptr %14, i32 0, i32 3
  %16 = load ptr, ptr %15, align 8, !tbaa !33
  %17 = load ptr, ptr %2, align 8, !tbaa !32
  %18 = getelementptr inbounds nuw %struct._zend_array, ptr %17, i32 0, i32 4
  %19 = load i32, ptr %18, align 8, !tbaa !36
  %20 = zext i32 %19 to i64
  %21 = getelementptr inbounds nuw %struct._Bucket, ptr %16, i64 %20
  store ptr %21, ptr %4, align 8, !tbaa !34
  %22 = load ptr, ptr %2, align 8, !tbaa !32
  %23 = getelementptr inbounds nuw %struct._zend_array, ptr %22, i32 0, i32 1
  %24 = load i32, ptr %23, align 8, !tbaa !33
  %25 = and i32 %24, 4
  %26 = icmp ne i32 %25, 0
  %27 = xor i1 %26, true
  call void @llvm.assume(i1 %27)
  br label %28

28:                                               ; preds = %58, %8
  %29 = load ptr, ptr %3, align 8, !tbaa !34
  %30 = load ptr, ptr %4, align 8, !tbaa !34
  %31 = icmp ne ptr %29, %30
  br i1 %31, label %32, label %61

32:                                               ; preds = %28
  call void @llvm.lifetime.start.p0(i64 8, ptr %5) #15
  %33 = load ptr, ptr %3, align 8, !tbaa !34
  %34 = getelementptr inbounds nuw %struct._Bucket, ptr %33, i32 0, i32 0
  store ptr %34, ptr %5, align 8, !tbaa !37
  %35 = load ptr, ptr %5, align 8, !tbaa !37
  %36 = call zeroext i8 @zval_get_type(ptr noundef %35)
  %37 = zext i8 %36 to i32
  %38 = icmp eq i32 %37, 0
  %39 = xor i1 %38, true
  %40 = xor i1 %39, true
  %41 = zext i1 %40 to i32
  %42 = sext i32 %41 to i64
  %43 = call i64 @llvm.expect.i64(i64 %42, i64 0)
  %44 = icmp ne i64 %43, 0
  br i1 %44, label %45, label %46

45:                                               ; preds = %32
  store i32 6, ptr %6, align 4
  br label %55

46:                                               ; preds = %32
  %47 = load ptr, ptr %5, align 8, !tbaa !37
  store ptr %47, ptr %1, align 8, !tbaa !37
  call void @llvm.lifetime.start.p0(i64 8, ptr %7) #15
  %48 = load ptr, ptr %1, align 8, !tbaa !37
  %49 = getelementptr inbounds nuw %struct._zval_struct, ptr %48, i32 0, i32 0
  %50 = load ptr, ptr %49, align 8, !tbaa !33
  store ptr %50, ptr %7, align 8, !tbaa !39
  %51 = load ptr, ptr %7, align 8, !tbaa !39
  %52 = getelementptr inbounds nuw %struct._zend_string, ptr %51, i32 0, i32 3
  %53 = getelementptr inbounds [1 x i8], ptr %52, i64 0, i64 0
  %54 = call i32 @unlink(ptr noundef %53) #15
  call void @llvm.lifetime.end.p0(i64 8, ptr %7) #15
  store i32 0, ptr %6, align 4
  br label %55

55:                                               ; preds = %46, %45
  call void @llvm.lifetime.end.p0(i64 8, ptr %5) #15
  %56 = load i32, ptr %6, align 4
  switch i32 %56, label %69 [
    i32 0, label %57
    i32 6, label %58
  ]

57:                                               ; preds = %55
  br label %58

58:                                               ; preds = %57, %55
  %59 = load ptr, ptr %3, align 8, !tbaa !34
  %60 = getelementptr inbounds nuw %struct._Bucket, ptr %59, i32 1
  store ptr %60, ptr %3, align 8, !tbaa !34
  br label %28

61:                                               ; preds = %28
  call void @llvm.lifetime.end.p0(i64 8, ptr %4) #15
  call void @llvm.lifetime.end.p0(i64 8, ptr %3) #15
  call void @llvm.lifetime.end.p0(i64 8, ptr %2) #15
  br label %62

62:                                               ; preds = %61
  br label %63

63:                                               ; preds = %62
  %64 = load ptr, ptr getelementptr inbounds nuw (%struct._sapi_globals_struct, ptr @sapi_globals, i32 0, i32 9), align 8, !tbaa !4
  call void @zend_hash_destroy(ptr noundef %64)
  br label %65

65:                                               ; preds = %63
  %66 = load ptr, ptr getelementptr inbounds nuw (%struct._sapi_globals_struct, ptr @sapi_globals, i32 0, i32 9), align 8, !tbaa !4
  call void @_efree_56(ptr noundef %66)
  br label %67

67:                                               ; preds = %65
  br label %68

68:                                               ; preds = %67
  store ptr null, ptr getelementptr inbounds nuw (%struct._sapi_globals_struct, ptr @sapi_globals, i32 0, i32 9), align 8, !tbaa !4
  call void @llvm.lifetime.end.p0(i64 8, ptr %1) #15
  ret void

69:                                               ; preds = %55
  unreachable
}